; ModuleID = '28/1381.c'
source_filename = "28/1381.c"
target datalayout = "e-m:e-p270:32:32-p271:32:32-p272:64:64-i64:64-f80:128-n8:16:32:64-S128"
target triple = "x86_64-pc-linux-gnu"

@.str = private unnamed_addr constant [3 x i8] c"%c\00", align 1
@.str.1 = private unnamed_addr constant [4 x i8] c"%d,\00", align 1
@.str.2 = private unnamed_addr constant [3 x i8] c"%d\00", align 1

; Function Attrs: noinline nounwind uwtable
define dso_local i32 @main() #0 {
  %1 = alloca i32, align 4
  %2 = alloca [300 x [101 x i8]], align 16
  %3 = alloca i8, align 1
  %4 = alloca i32, align 4
  %5 = alloca i32, align 4
  %6 = alloca i32, align 4
  %7 = alloca [300 x i32], align 16
  store i32 0, i32* %1, align 4
  store i32 0, i32* %5, align 4
  %8 = call i32 (i8*, ...) @__isoc99_scanf(i8* getelementptr inbounds ([3 x i8], [3 x i8]* @.str, i64 0, i64 0), i8* %3)
  store i32 0, i32* %4, align 4
  br label %9

9:                                                ; preds = %33, %0
  %10 = load i8, i8* %3, align 1
  %11 = sext i8 %10 to i32
  %12 = icmp ne i32 %11, 10
  br i1 %12, label %13, label %37

13:                                               ; preds = %9
  %14 = load i8, i8* %3, align 1
  %15 = load i32, i32* %4, align 4
  %16 = sext i32 %15 to i64
  %17 = getelementptr inbounds [300 x [101 x i8]], [300 x [101 x i8]]* %2, i64 0, i64 %16
  %18 = load i32, i32* %5, align 4
  %19 = sext i32 %18 to i64
  %20 = getelementptr inbounds [101 x i8], [101 x i8]* %17, i64 0, i64 %19
  store i8 %14, i8* %20, align 1
  %21 = load i8, i8* %3, align 1
  %22 = sext i8 %21 to i32
  %23 = icmp eq i32 %22, 32
  br i1 %23, label %24, label %33

24:                                               ; preds = %13
  %25 = load i32, i32* %4, align 4
  %26 = sext i32 %25 to i64
  %27 = getelementptr inbounds [300 x [101 x i8]], [300 x [101 x i8]]* %2, i64 0, i64 %26
  %28 = load i32, i32* %5, align 4
  %29 = sext i32 %28 to i64
  %30 = getelementptr inbounds [101 x i8], [101 x i8]* %27, i64 0, i64 %29
  store i8 0, i8* %30, align 1
  %31 = load i32, i32* %4, align 4
  %32 = add nsw i32 %31, 1
  store i32 %32, i32* %4, align 4
  store i32 -1, i32* %5, align 4
  br label %33

33:                                               ; preds = %24, %13
  %34 = load i32, i32* %5, align 4
  %35 = add nsw i32 %34, 1
  store i32 %35, i32* %5, align 4
  %36 = call i32 (i8*, ...) @__isoc99_scanf(i8* getelementptr inbounds ([3 x i8], [3 x i8]* @.str, i64 0, i64 0), i8* %3)
  br label %9

37:                                               ; preds = %9
  %38 = load i32, i32* %4, align 4
  %39 = sext i32 %38 to i64
  %40 = getelementptr inbounds [300 x [101 x i8]], [300 x [101 x i8]]* %2, i64 0, i64 %39
  %41 = load i32, i32* %5, align 4
  %42 = sext i32 %41 to i64
  %43 = getelementptr inbounds [101 x i8], [101 x i8]* %40, i64 0, i64 %42
  store i8 0, i8* %43, align 1
  %44 = load i32, i32* %4, align 4
  %45 = add nsw i32 %44, 1
  store i32 %45, i32* %6, align 4
  store i32 0, i32* %5, align 4
  store i32 0, i32* %4, align 4
  br label %46

46:                                               ; preds = %70, %37
  %47 = load i32, i32* %4, align 4
  %48 = load i32, i32* %6, align 4
  %49 = icmp slt i32 %47, %48
  br i1 %49, label %50, label %73

50:                                               ; preds = %46
  %51 = load i32, i32* %4, align 4
  %52 = sext i32 %51 to i64
  %53 = getelementptr inbounds [300 x [101 x i8]], [300 x [101 x i8]]* %2, i64 0, i64 %52
  %54 = getelementptr inbounds [101 x i8], [101 x i8]* %53, i64 0, i64 0
  %55 = call i64 @strlen(i8* %54) #3
  %56 = icmp ne i64 %55, 0
  br i1 %56, label %57, label %69

57:                                               ; preds = %50
  %58 = load i32, i32* %4, align 4
  %59 = sext i32 %58 to i64
  %60 = getelementptr inbounds [300 x [101 x i8]], [300 x [101 x i8]]* %2, i64 0, i64 %59
  %61 = getelementptr inbounds [101 x i8], [101 x i8]* %60, i64 0, i64 0
  %62 = call i64 @strlen(i8* %61) #3
  %63 = trunc i64 %62 to i32
  %64 = load i32, i32* %5, align 4
  %65 = sext i32 %64 to i64
  %66 = getelementptr inbounds [300 x i32], [300 x i32]* %7, i64 0, i64 %65
  store i32 %63, i32* %66, align 4
  %67 = load i32, i32* %5, align 4
  %68 = add nsw i32 %67, 1
  store i32 %68, i32* %5, align 4
  br label %69

69:                                               ; preds = %57, %50
  br label %70

70:                                               ; preds = %69
  %71 = load i32, i32* %4, align 4
  %72 = add nsw i32 %71, 1
  store i32 %72, i32* %4, align 4
  br label %46

73:                                               ; preds = %46
  store i32 0, i32* %4, align 4
  br label %74

74:                                               ; preds = %85, %73
  %75 = load i32, i32* %4, align 4
  %76 = load i32, i32* %5, align 4
  %77 = sub nsw i32 %76, 1
  %78 = icmp slt i32 %75, %77
  br i1 %78, label %79, label %88

79:                                               ; preds = %74
  %80 = load i32, i32* %4, align 4
  %81 = sext i32 %80 to i64
  %82 = getelementptr inbounds [300 x i32], [300 x i32]* %7, i64 0, i64 %81
  %83 = load i32, i32* %82, align 4
  %84 = call i32 (i8*, ...) @printf(i8* getelementptr inbounds ([4 x i8], [4 x i8]* @.str.1, i64 0, i64 0), i32 %83)
  br label %85

85:                                               ; preds = %79
  %86 = load i32, i32* %4, align 4
  %87 = add nsw i32 %86, 1
  store i32 %87, i32* %4, align 4
  br label %74

88:                                               ; preds = %74
  %89 = load i32, i32* %5, align 4
  %90 = sub nsw i32 %89, 1
  %91 = sext i32 %90 to i64
  %92 = getelementptr inbounds [300 x i32], [300 x i32]* %7, i64 0, i64 %91
  %93 = load i32, i32* %92, align 4
  %94 = call i32 (i8*, ...) @printf(i8* getelementptr inbounds ([3 x i8], [3 x i8]* @.str.2, i64 0, i64 0), i32 %93)
  ret i32 0
}

declare dso_local i32 @__isoc99_scanf(i8*, ...) #1

; Function Attrs: nounwind readonly
declare dso_local i64 @strlen(i8*) #2

declare dso_local i32 @printf(i8*, ...) #1


!llvm.module.flags = !{!0}
!llvm.ident = !{!1}

!0 = !{i32 1, !"wchar_size", i32 4}
!1 = !{!"clang version 10.0.0-4ubuntu1 "}
